; Function Attrs: mustprogress uwtable
define hidden void @_ZN4cvc58internal7options14OptionsHandler14setStatsDetailERKNSt7__cxx1112basic_stringIcSt11char_traitsIcESaIcEEEb(ptr noundef nonnull readonly align 8 captures(none) dereferenceable(8) %0, ptr noundef nonnull readnone align 8 captures(none) dereferenceable(32) %1, i1 noundef zeroext %2) local_unnamed_addr #5 align 2 {
  br i1 %2, label %4, label %8

4:                                                ; preds = %3
  %5 = load ptr, ptr %0, align 8, !tbaa !3
  %6 = tail call noundef nonnull align 8 dereferenceable(361) ptr @_ZN4cvc58internal7Options10write_baseEv(ptr noundef nonnull align 8 dereferenceable(408) %5)
  %7 = getelementptr inbounds nuw i8, ptr %6, i64 259
  store i8 1, ptr %7, align 1, !tbaa !252
  br label %8

8:                                                ; preds = %4, %3
  ret void
}